; Function Attrs: nofree norecurse nosync nounwind memory(readwrite, inaccessiblemem: none) uwtable
define void @OSQPVectorf_ew_max_vec(ptr nocapture noundef readonly %0, ptr nocapture noundef readonly %1, ptr nocapture noundef readonly %2) local_unnamed_addr #7 {
  %4 = getelementptr inbounds i8, ptr %1, i64 8
  %5 = load i64, ptr %4, align 8
  %6 = load ptr, ptr %1, align 8
  %7 = load ptr, ptr %2, align 8
  %8 = load ptr, ptr %0, align 8
  %9 = icmp sgt i64 %5, 0
  br i1 %9, label %.lr.ph, label %._crit_edge

.lr.ph:                                           ; preds = %3, %.lr.ph
  %.018 = phi i64 [ %16, %.lr.ph ], [ 0, %3 ]
  %10 = getelementptr inbounds double, ptr %6, i64 %.018
  %11 = load double, ptr %10, align 8
  %12 = getelementptr inbounds double, ptr %7, i64 %.018
  %13 = load double, ptr %12, align 8
  %14 = fcmp ogt double %11, %13
  %. = select i1 %14, double %11, double %13
  %15 = getelementptr inbounds double, ptr %8, i64 %.018
  store double %., ptr %15, align 8
  %16 = add nuw nsw i64 %.018, 1
  %exitcond.not = icmp eq i64 %16, %5
  br i1 %exitcond.not, label %._crit_edge, label %.lr.ph, !llvm.loop !43

._crit_edge:                                      ; preds = %.lr.ph, %3
  ret void
}